target datalayout = "e-m:e-p270:32:32-p271:32:32-p272:64:64-i64:64-i128:128-f80:128-n8:16:32:64-S128"
target triple = "x86_64-unknown-linux-gnu"

%"struct.net::QuicCompressedCertsCache::UncompressedCerts" = type { %class.scoped_refptr, ptr, ptr }
%class.scoped_refptr = type { ptr }
%"class.base::subtle::RefCountedBase" = type { i32 }

; Function Attrs: mustprogress nounwind uwtable
define linkonce_odr dso_local noundef zeroext i1 @_ZNK4base6subtle14RefCountedBase7ReleaseEv(ptr noundef nonnull align 4 dereferenceable(4) %this) #1 comdat align 2 {
entry:
  %retval = alloca i1, align 1
  %this.addr = alloca ptr, align 8
  store ptr %this, ptr %this.addr, align 8
  %this1 = load ptr, ptr %this.addr, align 8
  %ref_count_ = getelementptr inbounds %"class.base::subtle::RefCountedBase", ptr %this1, i32 0, i32 0
  %0 = load i32, ptr %ref_count_, align 4
  %dec = add nsw i32 %0, -1
  store i32 %dec, ptr %ref_count_, align 4
  %cmp = icmp eq i32 %dec, 0
  br i1 %cmp, label %if.then, label %if.end

if.then:                                          ; preds = %entry
  store i1 true, ptr %retval, align 1
  br label %return

if.end:                                           ; preds = %entry
  store i1 false, ptr %retval, align 1
  br label %return

return:                                           ; preds = %if.end, %if.then
  %1 = load i1, ptr %retval, align 1
  ret i1 %1
}

; Function Attrs: mustprogress uwtable
define linkonce_odr dso_local void @_ZNK4base10RefCountedIN3net11ProofSource5ChainEE7ReleaseEv(ptr noundef nonnull align 4 dereferenceable(4) %this) #0 comdat align 2 {
entry:
  %this.addr = alloca ptr, align 8
  store ptr %this, ptr %this.addr, align 8
  %this1 = load ptr, ptr %this.addr, align 8
  %call = call noundef zeroext i1 @_ZNK4base6subtle14RefCountedBase7ReleaseEv(ptr noundef nonnull align 4 dereferenceable(4) %this1)
  br i1 %call, label %if.then, label %if.end

if.then:                                          ; preds = %entry
  %sub.ptr = getelementptr inbounds i8, ptr %this1, i64 -8
  %isnull = icmp eq ptr %sub.ptr, null
  br i1 %isnull, label %delete.end, label %delete.notnull

delete.notnull:                                   ; preds = %if.then
  %vtable = load ptr, ptr %sub.ptr, align 8
  %vfn = getelementptr inbounds ptr, ptr %vtable, i64 1
  %0 = load ptr, ptr %vfn, align 8
  call void %0(ptr noundef nonnull align 8 dereferenceable(40) %sub.ptr) #11
  br label %delete.end

delete.end:                                       ; preds = %delete.notnull, %if.then
  br label %if.end

if.end:                                           ; preds = %delete.end, %entry
  ret void
}

; Function Attrs: noreturn nounwind uwtable
define linkonce_odr hidden void @__clang_call_terminate(ptr noundef %0) #4 comdat {
  %2 = call ptr @__cxa_begin_catch(ptr %0) #11
  call void @_ZSt9terminatev() #12
  unreachable
}

; Function Attrs: mustprogress uwtable
define linkonce_odr dso_local void @_ZN13scoped_refptrIN3net11ProofSource5ChainEE7ReleaseEPS2_(ptr noundef %ptr) #0 comdat align 2 {
entry:
  %ptr.addr = alloca ptr, align 8
  store ptr %ptr, ptr %ptr.addr, align 8
  %0 = load ptr, ptr %ptr.addr, align 8
  %add.ptr = getelementptr inbounds i8, ptr %0, i64 8
  call void @_ZNK4base10RefCountedIN3net11ProofSource5ChainEE7ReleaseEv(ptr noundef nonnull align 4 dereferenceable(4) %add.ptr)
  ret void
}

; Function Attrs: mustprogress nounwind uwtable
define linkonce_odr dso_local void @_ZN13scoped_refptrIN3net11ProofSource5ChainEED2Ev(ptr noundef nonnull align 8 dereferenceable(8) %this) unnamed_addr #1 comdat align 2 personality ptr @__gxx_personality_v0 {
entry:
  %this.addr = alloca ptr, align 8
  store ptr %this, ptr %this.addr, align 8
  %this1 = load ptr, ptr %this.addr, align 8
  %ptr_ = getelementptr inbounds %class.scoped_refptr, ptr %this1, i32 0, i32 0
  %0 = load ptr, ptr %ptr_, align 8
  %tobool = icmp ne ptr %0, null
  br i1 %tobool, label %if.then, label %if.end

if.then:                                          ; preds = %entry
  %ptr_2 = getelementptr inbounds %class.scoped_refptr, ptr %this1, i32 0, i32 0
  %1 = load ptr, ptr %ptr_2, align 8
  invoke void @_ZN13scoped_refptrIN3net11ProofSource5ChainEE7ReleaseEPS2_(ptr noundef %1)
          to label %invoke.cont unwind label %terminate.lpad

invoke.cont:                                      ; preds = %if.then
  br label %if.end

if.end:                                           ; preds = %invoke.cont, %entry
  ret void

terminate.lpad:                                   ; preds = %if.then
  %2 = landingpad { ptr, i32 }
          catch ptr null
  %3 = extractvalue { ptr, i32 } %2, 0
  call void @__clang_call_terminate(ptr %3) #12
  unreachable
}

; Function Attrs: mustprogress nounwind uwtable
define dso_local void @_ZN3net24QuicCompressedCertsCache17UncompressedCertsD2Ev(ptr noundef nonnull align 8 dereferenceable(24) %this) unnamed_addr #1 align 2 {
entry:
  %this.addr = alloca ptr, align 8
  store ptr %this, ptr %this.addr, align 8
  %this1 = load ptr, ptr %this.addr, align 8
  %chain = getelementptr inbounds %"struct.net::QuicCompressedCertsCache::UncompressedCerts", ptr %this1, i32 0, i32 0
  call void @_ZN13scoped_refptrIN3net11ProofSource5ChainEED2Ev(ptr noundef nonnull align 8 dereferenceable(8) %chain) #11
  ret void
}