; Function Attrs: mustprogress nounwind uwtable
define dso_local void @_ZN3net24QuicCompressedCertsCache17UncompressedCertsD2Ev(ptr nocapture noundef nonnull readonly align 8 dereferenceable(24) %this) unnamed_addr #2 align 2 personality ptr @__gxx_personality_v0 {
entry:
  %0 = load ptr, ptr %this, align 8
  %tobool.not.i = icmp eq ptr %0, null
  br i1 %tobool.not.i, label %_ZN13scoped_refptrIN3net11ProofSource5ChainEED2Ev.exit, label %if.then.i

if.then.i:                                        ; preds = %entry
  %add.ptr.i.i = getelementptr inbounds i8, ptr %0, i64 8
  %1 = load i32, ptr %add.ptr.i.i, align 4
  %dec.i.i.i.i = add nsw i32 %1, -1
  store i32 %dec.i.i.i.i, ptr %add.ptr.i.i, align 4
  %cmp.i.i.i.i = icmp eq i32 %dec.i.i.i.i, 0
  br i1 %cmp.i.i.i.i, label %delete.notnull.i.i.i, label %_ZN13scoped_refptrIN3net11ProofSource5ChainEED2Ev.exit

delete.notnull.i.i.i:                             ; preds = %if.then.i
  %vtable.i.i.i = load ptr, ptr %0, align 8
  %vfn.i.i.i = getelementptr inbounds i8, ptr %vtable.i.i.i, i64 8
  %2 = load ptr, ptr %vfn.i.i.i, align 8
  tail call void %2(ptr noundef nonnull align 8 dereferenceable(40) %0) #13
  br label %_ZN13scoped_refptrIN3net11ProofSource5ChainEED2Ev.exit

_ZN13scoped_refptrIN3net11ProofSource5ChainEED2Ev.exit: ; preds = %entry, %if.then.i, %delete.notnull.i.i.i
  ret void
}